; Function Attrs: mustprogress uwtable
define internal fastcc void @_ZL16readUrlAttributeRN4pugi8xml_nodeERNSt7__cxx1112basic_stringIcSt11char_traitsIcESaIcEEE(ptr noundef nonnull readonly align 8 captures(none) dereferenceable(8) %0, ptr noundef nonnull align 8 dereferenceable(32) initializes((8, 16)) %1) unnamed_addr #3 personality ptr @__gxx_personality_v0 {
  %3 = getelementptr inbounds nuw i8, ptr %1, i64 8
  store i64 0, ptr %3, align 8
  %4 = load ptr, ptr %1, align 8
  store i8 0, ptr %4, align 1
  %5 = load ptr, ptr %0, align 8
  %.not.i.i = icmp eq ptr %5, null
  br i1 %.not.i.i, label %_ZN6Assimp10TXmlParserIN4pugi8xml_nodeEE18getStdStrAttributeERS2_PKcRNSt7__cxx1112basic_stringIcSt11char_traitsIcESaIcEEE.exit.thread, label %6

6:                                                ; preds = %2
  %7 = getelementptr inbounds nuw i8, ptr %5, i64 56
  %.017.i.i = load ptr, ptr %7, align 8
  %.not1218.i.i = icmp eq ptr %.017.i.i, null
  br i1 %.not1218.i.i, label %_ZN6Assimp10TXmlParserIN4pugi8xml_nodeEE18getStdStrAttributeERS2_PKcRNSt7__cxx1112basic_stringIcSt11char_traitsIcESaIcEEE.exit.thread, label %.lr.ph.i.i

.lr.ph.i.i:                                       ; preds = %6, %13
  %.019.i.i = phi ptr [ %.0.i.i, %13 ], [ %.017.i.i, %6 ]
  %8 = getelementptr inbounds nuw i8, ptr %.019.i.i, i64 8
  %9 = load ptr, ptr %8, align 8
  %.not13.i.i = icmp eq ptr %9, null
  br i1 %.not13.i.i, label %13, label %10

10:                                               ; preds = %.lr.ph.i.i
  %11 = tail call i32 @strcmp(ptr noundef nonnull dereferenceable(4) @.str.175, ptr noundef nonnull dereferenceable(1) %9) #38
  %12 = icmp eq i32 %11, 0
  br i1 %12, label %15, label %13

13:                                               ; preds = %10, %.lr.ph.i.i
  %14 = getelementptr inbounds nuw i8, ptr %.019.i.i, i64 32
  %.0.i.i = load ptr, ptr %14, align 8
  %.not12.i.i = icmp eq ptr %.0.i.i, null
  br i1 %.not12.i.i, label %_ZN6Assimp10TXmlParserIN4pugi8xml_nodeEE18getStdStrAttributeERS2_PKcRNSt7__cxx1112basic_stringIcSt11char_traitsIcESaIcEEE.exit.thread, label %.lr.ph.i.i, !llvm.loop !8

15:                                               ; preds = %10
  %16 = getelementptr inbounds nuw i8, ptr %.019.i.i, i64 16
  %17 = load ptr, ptr %16, align 8
  %.not7.i.i = icmp eq ptr %17, null
  %18 = select i1 %.not7.i.i, ptr @.str.47, ptr %17
  %19 = load i64, ptr %3, align 8
  %20 = tail call noundef i64 @strlen(ptr noundef nonnull dereferenceable(1) %18) #35
  %21 = tail call noundef nonnull align 8 dereferenceable(32) ptr @_ZNSt7__cxx1112basic_stringIcSt11char_traitsIcESaIcEE10_M_replaceEmmPKcm(ptr noundef nonnull align 8 dereferenceable(32) %1, i64 noundef 0, i64 noundef %19, ptr noundef nonnull %18, i64 noundef %20)
  %22 = load ptr, ptr %1, align 8
  %23 = load i8, ptr %22, align 1
  %.not = icmp eq i8 %23, 35
  br i1 %.not, label %29, label %24

24:                                               ; preds = %15
  %25 = tail call ptr @__cxa_allocate_exception(i64 16) #35
  invoke void @_ZN17DeadlyImportErrorC2EPKc(ptr noundef nonnull align 8 dereferenceable(16) %25, ptr noundef nonnull @.str.263)
          to label %26 unwind label %27

26:                                               ; preds = %24
  tail call void @__cxa_throw(ptr nonnull %25, ptr nonnull @_ZTI17DeadlyImportError, ptr nonnull @_ZNSt13runtime_errorD2Ev) #36
  unreachable

27:                                               ; preds = %24
  %28 = landingpad { ptr, i32 }
          cleanup
  tail call void @__cxa_free_exception(ptr nonnull %25) #35
  resume { ptr, i32 } %28

29:                                               ; preds = %15
  %30 = getelementptr inbounds nuw i8, ptr %22, i64 1
  %31 = load i64, ptr %3, align 8
  %32 = tail call noundef i64 @strlen(ptr noundef nonnull dereferenceable(1) %30) #35
  %33 = tail call noundef nonnull align 8 dereferenceable(32) ptr @_ZNSt7__cxx1112basic_stringIcSt11char_traitsIcESaIcEE10_M_replaceEmmPKcm(ptr noundef nonnull align 8 dereferenceable(32) %1, i64 noundef 0, i64 noundef %31, ptr noundef nonnull %30, i64 noundef %32)
  br label %_ZN6Assimp10TXmlParserIN4pugi8xml_nodeEE18getStdStrAttributeERS2_PKcRNSt7__cxx1112basic_stringIcSt11char_traitsIcESaIcEEE.exit.thread

_ZN6Assimp10TXmlParserIN4pugi8xml_nodeEE18getStdStrAttributeERS2_PKcRNSt7__cxx1112basic_stringIcSt11char_traitsIcESaIcEEE.exit.thread: ; preds = %13, %6, %2, %29
  ret void
}